; Function Attrs: nofree norecurse nosync nounwind memory(argmem: readwrite) uwtable
define internal void @weight_h264_pixels16_8_c(ptr noundef captures(none) %0, i64 noundef %1, i32 noundef %2, i32 noundef %3, i32 noundef %4, i32 noundef %5) #1 {
  %7 = shl i32 %5, %3
  %.not = icmp eq i32 %3, 0
  %8 = add nsw i32 %3, -1
  %9 = shl nuw i32 1, %8
  %10 = add nsw i32 %7, %9
  %.092 = select i1 %.not, i32 %5, i32 %10
  %11 = icmp sgt i32 %2, 0
  br i1 %11, label %.lr.ph, label %._crit_edge

.lr.ph:                                           ; preds = %6, %.lr.ph
  %.0140 = phi ptr [ %140, %.lr.ph ], [ %0, %6 ]
  %.091139 = phi i32 [ %139, %.lr.ph ], [ 0, %6 ]
  %12 = load i8, ptr %.0140, align 1, !tbaa !42
  %13 = zext i8 %12 to i32
  %14 = mul nsw i32 %4, %13
  %15 = add nsw i32 %14, %.092
  %16 = ashr i32 %15, %3
  %.not.i = icmp ult i32 %16, 256
  %isnotneg.i = icmp sgt i32 %16, -1
  %17 = sext i1 %isnotneg.i to i8
  %18 = trunc nuw i32 %16 to i8
  %.0.i = select i1 %.not.i, i8 %18, i8 %17
  store i8 %.0.i, ptr %.0140, align 1, !tbaa !42
  %19 = getelementptr inbounds nuw i8, ptr %.0140, i64 1
  %20 = load i8, ptr %19, align 1, !tbaa !42
  %21 = zext i8 %20 to i32
  %22 = mul nsw i32 %4, %21
  %23 = add nsw i32 %22, %.092
  %24 = ashr i32 %23, %3
  %.not.i94 = icmp ult i32 %24, 256
  %isnotneg.i95 = icmp sgt i32 %24, -1
  %25 = sext i1 %isnotneg.i95 to i8
  %26 = trunc nuw i32 %24 to i8
  %.0.i96 = select i1 %.not.i94, i8 %26, i8 %25
  store i8 %.0.i96, ptr %19, align 1, !tbaa !42
  %27 = getelementptr inbounds nuw i8, ptr %.0140, i64 2
  %28 = load i8, ptr %27, align 1, !tbaa !42
  %29 = zext i8 %28 to i32
  %30 = mul nsw i32 %4, %29
  %31 = add nsw i32 %30, %.092
  %32 = ashr i32 %31, %3
  %.not.i97 = icmp ult i32 %32, 256
  %isnotneg.i98 = icmp sgt i32 %32, -1
  %33 = sext i1 %isnotneg.i98 to i8
  %34 = trunc nuw i32 %32 to i8
  %.0.i99 = select i1 %.not.i97, i8 %34, i8 %33
  store i8 %.0.i99, ptr %27, align 1, !tbaa !42
  %35 = getelementptr inbounds nuw i8, ptr %.0140, i64 3
  %36 = load i8, ptr %35, align 1, !tbaa !42
  %37 = zext i8 %36 to i32
  %38 = mul nsw i32 %4, %37
  %39 = add nsw i32 %38, %.092
  %40 = ashr i32 %39, %3
  %.not.i100 = icmp ult i32 %40, 256
  %isnotneg.i101 = icmp sgt i32 %40, -1
  %41 = sext i1 %isnotneg.i101 to i8
  %42 = trunc nuw i32 %40 to i8
  %.0.i102 = select i1 %.not.i100, i8 %42, i8 %41
  store i8 %.0.i102, ptr %35, align 1, !tbaa !42
  %43 = getelementptr inbounds nuw i8, ptr %.0140, i64 4
  %44 = load i8, ptr %43, align 1, !tbaa !42
  %45 = zext i8 %44 to i32
  %46 = mul nsw i32 %4, %45
  %47 = add nsw i32 %46, %.092
  %48 = ashr i32 %47, %3
  %.not.i103 = icmp ult i32 %48, 256
  %isnotneg.i104 = icmp sgt i32 %48, -1
  %49 = sext i1 %isnotneg.i104 to i8
  %50 = trunc nuw i32 %48 to i8
  %.0.i105 = select i1 %.not.i103, i8 %50, i8 %49
  store i8 %.0.i105, ptr %43, align 1, !tbaa !42
  %51 = getelementptr inbounds nuw i8, ptr %.0140, i64 5
  %52 = load i8, ptr %51, align 1, !tbaa !42
  %53 = zext i8 %52 to i32
  %54 = mul nsw i32 %4, %53
  %55 = add nsw i32 %54, %.092
  %56 = ashr i32 %55, %3
  %.not.i106 = icmp ult i32 %56, 256
  %isnotneg.i107 = icmp sgt i32 %56, -1
  %57 = sext i1 %isnotneg.i107 to i8
  %58 = trunc nuw i32 %56 to i8
  %.0.i108 = select i1 %.not.i106, i8 %58, i8 %57
  store i8 %.0.i108, ptr %51, align 1, !tbaa !42
  %59 = getelementptr inbounds nuw i8, ptr %.0140, i64 6
  %60 = load i8, ptr %59, align 1, !tbaa !42
  %61 = zext i8 %60 to i32
  %62 = mul nsw i32 %4, %61
  %63 = add nsw i32 %62, %.092
  %64 = ashr i32 %63, %3
  %.not.i109 = icmp ult i32 %64, 256
  %isnotneg.i110 = icmp sgt i32 %64, -1
  %65 = sext i1 %isnotneg.i110 to i8
  %66 = trunc nuw i32 %64 to i8
  %.0.i111 = select i1 %.not.i109, i8 %66, i8 %65
  store i8 %.0.i111, ptr %59, align 1, !tbaa !42
  %67 = getelementptr inbounds nuw i8, ptr %.0140, i64 7
  %68 = load i8, ptr %67, align 1, !tbaa !42
  %69 = zext i8 %68 to i32
  %70 = mul nsw i32 %4, %69
  %71 = add nsw i32 %70, %.092
  %72 = ashr i32 %71, %3
  %.not.i112 = icmp ult i32 %72, 256
  %isnotneg.i113 = icmp sgt i32 %72, -1
  %73 = sext i1 %isnotneg.i113 to i8
  %74 = trunc nuw i32 %72 to i8
  %.0.i114 = select i1 %.not.i112, i8 %74, i8 %73
  store i8 %.0.i114, ptr %67, align 1, !tbaa !42
  %75 = getelementptr inbounds nuw i8, ptr %.0140, i64 8
  %76 = load i8, ptr %75, align 1, !tbaa !42
  %77 = zext i8 %76 to i32
  %78 = mul nsw i32 %4, %77
  %79 = add nsw i32 %78, %.092
  %80 = ashr i32 %79, %3
  %.not.i115 = icmp ult i32 %80, 256
  %isnotneg.i116 = icmp sgt i32 %80, -1
  %81 = sext i1 %isnotneg.i116 to i8
  %82 = trunc nuw i32 %80 to i8
  %.0.i117 = select i1 %.not.i115, i8 %82, i8 %81
  store i8 %.0.i117, ptr %75, align 1, !tbaa !42
  %83 = getelementptr inbounds nuw i8, ptr %.0140, i64 9
  %84 = load i8, ptr %83, align 1, !tbaa !42
  %85 = zext i8 %84 to i32
  %86 = mul nsw i32 %4, %85
  %87 = add nsw i32 %86, %.092
  %88 = ashr i32 %87, %3
  %.not.i118 = icmp ult i32 %88, 256
  %isnotneg.i119 = icmp sgt i32 %88, -1
  %89 = sext i1 %isnotneg.i119 to i8
  %90 = trunc nuw i32 %88 to i8
  %.0.i120 = select i1 %.not.i118, i8 %90, i8 %89
  store i8 %.0.i120, ptr %83, align 1, !tbaa !42
  %91 = getelementptr inbounds nuw i8, ptr %.0140, i64 10
  %92 = load i8, ptr %91, align 1, !tbaa !42
  %93 = zext i8 %92 to i32
  %94 = mul nsw i32 %4, %93
  %95 = add nsw i32 %94, %.092
  %96 = ashr i32 %95, %3
  %.not.i121 = icmp ult i32 %96, 256
  %isnotneg.i122 = icmp sgt i32 %96, -1
  %97 = sext i1 %isnotneg.i122 to i8
  %98 = trunc nuw i32 %96 to i8
  %.0.i123 = select i1 %.not.i121, i8 %98, i8 %97
  store i8 %.0.i123, ptr %91, align 1, !tbaa !42
  %99 = getelementptr inbounds nuw i8, ptr %.0140, i64 11
  %100 = load i8, ptr %99, align 1, !tbaa !42
  %101 = zext i8 %100 to i32
  %102 = mul nsw i32 %4, %101
  %103 = add nsw i32 %102, %.092
  %104 = ashr i32 %103, %3
  %.not.i124 = icmp ult i32 %104, 256
  %isnotneg.i125 = icmp sgt i32 %104, -1
  %105 = sext i1 %isnotneg.i125 to i8
  %106 = trunc nuw i32 %104 to i8
  %.0.i126 = select i1 %.not.i124, i8 %106, i8 %105
  store i8 %.0.i126, ptr %99, align 1, !tbaa !42
  %107 = getelementptr inbounds nuw i8, ptr %.0140, i64 12
  %108 = load i8, ptr %107, align 1, !tbaa !42
  %109 = zext i8 %108 to i32
  %110 = mul nsw i32 %4, %109
  %111 = add nsw i32 %110, %.092
  %112 = ashr i32 %111, %3
  %.not.i127 = icmp ult i32 %112, 256
  %isnotneg.i128 = icmp sgt i32 %112, -1
  %113 = sext i1 %isnotneg.i128 to i8
  %114 = trunc nuw i32 %112 to i8
  %.0.i129 = select i1 %.not.i127, i8 %114, i8 %113
  store i8 %.0.i129, ptr %107, align 1, !tbaa !42
  %115 = getelementptr inbounds nuw i8, ptr %.0140, i64 13
  %116 = load i8, ptr %115, align 1, !tbaa !42
  %117 = zext i8 %116 to i32
  %118 = mul nsw i32 %4, %117
  %119 = add nsw i32 %118, %.092
  %120 = ashr i32 %119, %3
  %.not.i130 = icmp ult i32 %120, 256
  %isnotneg.i131 = icmp sgt i32 %120, -1
  %121 = sext i1 %isnotneg.i131 to i8
  %122 = trunc nuw i32 %120 to i8
  %.0.i132 = select i1 %.not.i130, i8 %122, i8 %121
  store i8 %.0.i132, ptr %115, align 1, !tbaa !42
  %123 = getelementptr inbounds nuw i8, ptr %.0140, i64 14
  %124 = load i8, ptr %123, align 1, !tbaa !42
  %125 = zext i8 %124 to i32
  %126 = mul nsw i32 %4, %125
  %127 = add nsw i32 %126, %.092
  %128 = ashr i32 %127, %3
  %.not.i133 = icmp ult i32 %128, 256
  %isnotneg.i134 = icmp sgt i32 %128, -1
  %129 = sext i1 %isnotneg.i134 to i8
  %130 = trunc nuw i32 %128 to i8
  %.0.i135 = select i1 %.not.i133, i8 %130, i8 %129
  store i8 %.0.i135, ptr %123, align 1, !tbaa !42
  %131 = getelementptr inbounds nuw i8, ptr %.0140, i64 15
  %132 = load i8, ptr %131, align 1, !tbaa !42
  %133 = zext i8 %132 to i32
  %134 = mul nsw i32 %4, %133
  %135 = add nsw i32 %134, %.092
  %136 = ashr i32 %135, %3
  %.not.i136 = icmp ult i32 %136, 256
  %isnotneg.i137 = icmp sgt i32 %136, -1
  %137 = sext i1 %isnotneg.i137 to i8
  %138 = trunc nuw i32 %136 to i8
  %.0.i138 = select i1 %.not.i136, i8 %138, i8 %137
  store i8 %.0.i138, ptr %131, align 1, !tbaa !42
  %139 = add nuw nsw i32 %.091139, 1
  %140 = getelementptr inbounds i8, ptr %.0140, i64 %1
  %exitcond.not = icmp eq i32 %139, %2
  br i1 %exitcond.not, label %._crit_edge, label %.lr.ph, !llvm.loop !101

._crit_edge:                                      ; preds = %.lr.ph, %6
  ret void
}